target datalayout = "e-m:e-p270:32:32-p271:32:32-p272:64:64-i64:64-i128:128-f80:128-n8:16:32:64-S128"
target triple = "x86_64-pc-linux-gnu"

; Function Attrs: nounwind uwtable
define internal ptr @php_ap_basename(ptr noundef %0, ptr noundef %1) #0 {
  %3 = alloca ptr, align 8
  %4 = alloca ptr, align 8
  %5 = alloca ptr, align 8
  %6 = alloca ptr, align 8
  %7 = alloca ptr, align 8
  %8 = alloca i32, align 4
  store ptr %0, ptr %4, align 8, !tbaa !58
  store ptr %1, ptr %5, align 8, !tbaa !41
  call void @llvm.lifetime.start.p0(i64 8, ptr %6) #15
  %9 = load ptr, ptr %5, align 8, !tbaa !41
  %10 = call ptr @strrchr(ptr noundef %9, i32 noundef 92) #16
  store ptr %10, ptr %6, align 8, !tbaa !41
  call void @llvm.lifetime.start.p0(i64 8, ptr %7) #15
  %11 = load ptr, ptr %5, align 8, !tbaa !41
  %12 = call ptr @strrchr(ptr noundef %11, i32 noundef 47) #16
  store ptr %12, ptr %7, align 8, !tbaa !41
  %13 = load ptr, ptr %6, align 8, !tbaa !41
  %14 = icmp ne ptr %13, null
  br i1 %14, label %15, label %30

15:                                               ; preds = %2
  %16 = load ptr, ptr %7, align 8, !tbaa !41
  %17 = icmp ne ptr %16, null
  br i1 %17, label %18, label %30

18:                                               ; preds = %15
  %19 = load ptr, ptr %6, align 8, !tbaa !41
  %20 = load ptr, ptr %7, align 8, !tbaa !41
  %21 = icmp ugt ptr %19, %20
  br i1 %21, label %22, label %25

22:                                               ; preds = %18
  %23 = load ptr, ptr %6, align 8, !tbaa !41
  %24 = getelementptr inbounds nuw i8, ptr %23, i32 1
  store ptr %24, ptr %6, align 8, !tbaa !41
  br label %28

25:                                               ; preds = %18
  %26 = load ptr, ptr %7, align 8, !tbaa !41
  %27 = getelementptr inbounds nuw i8, ptr %26, i32 1
  store ptr %27, ptr %7, align 8, !tbaa !41
  store ptr %27, ptr %6, align 8, !tbaa !41
  br label %28

28:                                               ; preds = %25, %22
  %29 = load ptr, ptr %6, align 8, !tbaa !41
  store ptr %29, ptr %3, align 8
  store i32 1, ptr %8, align 4
  br label %46

30:                                               ; preds = %15, %2
  %31 = load ptr, ptr %6, align 8, !tbaa !41
  %32 = icmp ne ptr %31, null
  br i1 %32, label %33, label %36

33:                                               ; preds = %30
  %34 = load ptr, ptr %6, align 8, !tbaa !41
  %35 = getelementptr inbounds nuw i8, ptr %34, i32 1
  store ptr %35, ptr %6, align 8, !tbaa !41
  store ptr %35, ptr %3, align 8
  store i32 1, ptr %8, align 4
  br label %46

36:                                               ; preds = %30
  %37 = load ptr, ptr %7, align 8, !tbaa !41
  %38 = icmp ne ptr %37, null
  br i1 %38, label %39, label %42

39:                                               ; preds = %36
  %40 = load ptr, ptr %7, align 8, !tbaa !41
  %41 = getelementptr inbounds nuw i8, ptr %40, i32 1
  store ptr %41, ptr %7, align 8, !tbaa !41
  store ptr %41, ptr %3, align 8
  store i32 1, ptr %8, align 4
  br label %46

42:                                               ; preds = %36
  br label %43

43:                                               ; preds = %42
  br label %44

44:                                               ; preds = %43
  %45 = load ptr, ptr %5, align 8, !tbaa !41
  store ptr %45, ptr %3, align 8
  store i32 1, ptr %8, align 4
  br label %46

46:                                               ; preds = %44, %39, %33, %28
  call void @llvm.lifetime.end.p0(i64 8, ptr %7) #15
  call void @llvm.lifetime.end.p0(i64 8, ptr %6) #15
  %47 = load ptr, ptr %3, align 8
  ret ptr %47
}