; Function Attrs: mustprogress nofree nounwind willreturn memory(argmem: read) uwtable
define internal ptr @php_ap_basename(ptr readnone captures(none) %0, ptr noundef readonly %1) unnamed_addr #5 {
  %3 = tail call ptr @strrchr(ptr noundef nonnull dereferenceable(1) %1, i32 noundef 92) #22
  %4 = tail call ptr @strrchr(ptr noundef nonnull dereferenceable(1) %1, i32 noundef 47) #22
  %5 = icmp ne ptr %3, null
  %6 = icmp ne ptr %4, null
  %or.cond = select i1 %5, i1 %6, i1 false
  br i1 %or.cond, label %7, label %9

7:                                                ; preds = %2
  %8 = icmp ugt ptr %3, %4
  %. = select i1 %8, ptr %3, ptr %4
  %.0 = getelementptr inbounds nuw i8, ptr %., i64 1
  br label %14

9:                                                ; preds = %2
  br i1 %5, label %10, label %12

10:                                               ; preds = %9
  %11 = getelementptr inbounds nuw i8, ptr %3, i64 1
  br label %14

12:                                               ; preds = %9
  %13 = getelementptr inbounds nuw i8, ptr %4, i64 1
  %spec.select = select i1 %6, ptr %13, ptr %1
  br label %14

14:                                               ; preds = %12, %10, %7
  %.016 = phi ptr [ %.0, %7 ], [ %11, %10 ], [ %spec.select, %12 ]
  ret ptr %.016
}